target datalayout = "e-m:e-p270:32:32-p271:32:32-p272:64:64-i64:64-i128:128-f80:128-n8:16:32:64-S128"
target triple = "x86_64-unknown-linux-gnu"

%"class.hermes::vm::GCCell" = type { %union.anon.1 }
%union.anon.1 = type { %"class.hermes::vm::KindAndSize" }
%"class.hermes::vm::KindAndSize" = type { i32 }
%"class.hermes::vm::HandleBase" = type { ptr }
%"class.hermes::vm::CallResult.162" = type { %"class.hermes::vm::Handle.163" }
%"class.hermes::vm::Handle.163" = type { %"class.hermes::vm::HandleBase" }

; Function Attrs: mustprogress nounwind uwtable
define linkonce_odr hidden noundef i32 @_ZNK6hermes2vm11KindAndSize7getKindEv(ptr noundef nonnull align 4 dereferenceable(4) %this) #0 comdat align 2 {
entry:
  %this.addr = alloca ptr, align 8
  store ptr %this, ptr %this.addr, align 8
  %this1 = load ptr, ptr %this.addr, align 8
  %bf.load = load i32, ptr %this1, align 4
  %bf.lshr = lshr i32 %bf.load, 24
  ret i32 %bf.lshr
}

; Function Attrs: mustprogress nounwind uwtable
define linkonce_odr hidden noundef i32 @_ZNK6hermes2vm6GCCell7getKindEv(ptr noundef nonnull align 4 dereferenceable(4) %this) #0 comdat align 2 {
entry:
  %this.addr = alloca ptr, align 8
  store ptr %this, ptr %this.addr, align 8
  %this1 = load ptr, ptr %this.addr, align 8
  %0 = getelementptr inbounds %"class.hermes::vm::GCCell", ptr %this1, i32 0, i32 0
  %call = call noundef i32 @_ZNK6hermes2vm11KindAndSize7getKindEv(ptr noundef nonnull align 4 dereferenceable(4) %0)
  ret i32 %call
}

; Function Attrs: mustprogress nounwind uwtable
define hidden ptr @_ZN6hermes2vm16JSTypedArrayBase8allocateERNS0_7RuntimeEj(ptr noundef nonnull align 4 dereferenceable(32) %this, ptr noundef nonnull align 8 dereferenceable(9832) %runtime, i32 noundef %length) #0 align 2 {
entry:
  %retval = alloca %"class.hermes::vm::CallResult.162", align 8
  %this.addr = alloca ptr, align 8
  %runtime.addr = alloca ptr, align 8
  %length.addr = alloca i32, align 4
  store ptr %this, ptr %this.addr, align 8
  store ptr %runtime, ptr %runtime.addr, align 8
  store i32 %length, ptr %length.addr, align 4
  %this1 = load ptr, ptr %this.addr, align 8
  %call = call noundef i32 @_ZNK6hermes2vm6GCCell7getKindEv(ptr noundef nonnull align 4 dereferenceable(4) %this1)
  %conv = sext i32 %call to i64
  %sub = sub i64 %conv, 35
  %arrayidx = getelementptr inbounds [11 x ptr], ptr @_ZZN6hermes2vm16JSTypedArrayBase8allocateERNS0_7RuntimeEjE11allocateFns, i64 0, i64 %sub
  %0 = load ptr, ptr %arrayidx, align 8
  %1 = load ptr, ptr %runtime.addr, align 8
  %2 = load i32, ptr %length.addr, align 4
  %call2 = call ptr %0(ptr noundef nonnull align 8 dereferenceable(9832) %1, i32 noundef %2)
  %coerce.dive = getelementptr inbounds %"class.hermes::vm::CallResult.162", ptr %retval, i32 0, i32 0
  %coerce.dive3 = getelementptr inbounds %"class.hermes::vm::Handle.163", ptr %coerce.dive, i32 0, i32 0
  %coerce.dive4 = getelementptr inbounds %"class.hermes::vm::HandleBase", ptr %coerce.dive3, i32 0, i32 0
  store ptr %call2, ptr %coerce.dive4, align 8
  %coerce.dive5 = getelementptr inbounds %"class.hermes::vm::CallResult.162", ptr %retval, i32 0, i32 0
  %coerce.dive6 = getelementptr inbounds %"class.hermes::vm::Handle.163", ptr %coerce.dive5, i32 0, i32 0
  %coerce.dive7 = getelementptr inbounds %"class.hermes::vm::HandleBase", ptr %coerce.dive6, i32 0, i32 0
  %3 = load ptr, ptr %coerce.dive7, align 8
  ret ptr %3
}