; Function Attrs: mustprogress nounwind uwtable
define hidden ptr @_ZN6hermes2vm16JSTypedArrayBase8allocateERNS0_7RuntimeEj(ptr noundef nonnull readonly align 4 captures(none) dereferenceable(32) %this, ptr noundef nonnull align 8 dereferenceable(9832) %runtime, i32 noundef %length) local_unnamed_addr #1 align 2 {
entry:
  %bf.load.i.i = load i32, ptr %this, align 4
  %bf.lshr.i.i = lshr i32 %bf.load.i.i, 24
  %conv = zext nneg i32 %bf.lshr.i.i to i64
  %sub = add nsw i64 %conv, -35
  %arrayidx = getelementptr inbounds [11 x ptr], ptr @_ZZN6hermes2vm16JSTypedArrayBase8allocateERNS0_7RuntimeEjE11allocateFns, i64 0, i64 %sub
  %0 = load ptr, ptr %arrayidx, align 8
  %call2 = tail call ptr %0(ptr noundef nonnull align 8 dereferenceable(9832) %runtime, i32 noundef %length) #10
  ret ptr %call2
}